; Function Attrs: mustprogress nofree norecurse nosync nounwind memory(argmem: readwrite, inaccessiblemem: readwrite) uwtable
define hidden void @_ZN2cv6dynafumlERKNS0_10QuaternionEf(ptr dead_on_unwind noalias writable writeonly sret(%"class.cv::dynafu::Quaternion") align 4 captures(none) %0, ptr noundef nonnull readonly align 4 captures(none) dereferenceable(16) %1, float noundef %2) local_unnamed_addr #6 {
  %4 = alloca %"class.cv::Vec", align 4
  tail call void @llvm.experimental.noalias.scope.decl(metadata !15)
  call void @llvm.lifetime.start.p0(i64 16, ptr nonnull %4) #18, !noalias !15
  tail call void @llvm.experimental.noalias.scope.decl(metadata !18)
  br label %5

5:                                                ; preds = %5, %3
  %indvars.iv.i.i.i.i = phi i64 [ 0, %3 ], [ %indvars.iv.next.i.i.i.i, %5 ]
  %6 = getelementptr inbounds nuw [4 x float], ptr %1, i64 0, i64 %indvars.iv.i.i.i.i
  %7 = load float, ptr %6, align 4, !tbaa !3, !noalias !21
  %8 = fmul float %2, %7
  %9 = getelementptr inbounds nuw [4 x float], ptr %4, i64 0, i64 %indvars.iv.i.i.i.i
  store float %8, ptr %9, align 4, !tbaa !3, !alias.scope !18, !noalias !15
  %indvars.iv.next.i.i.i.i = add nuw nsw i64 %indvars.iv.i.i.i.i, 1
  %exitcond.not.i.i.i.i = icmp eq i64 %indvars.iv.next.i.i.i.i, 4
  br i1 %exitcond.not.i.i.i.i, label %_ZN2cv6dynafumlEfRKNS0_10QuaternionE.exit, label %5, !llvm.loop !14

_ZN2cv6dynafumlEfRKNS0_10QuaternionE.exit:        ; preds = %5
  %10 = load float, ptr %4, align 4, !tbaa !3, !noalias !15
  %11 = getelementptr inbounds nuw i8, ptr %4, i64 4
  %12 = load float, ptr %11, align 4, !tbaa !3, !noalias !15
  %13 = getelementptr inbounds nuw i8, ptr %4, i64 8
  %14 = load float, ptr %13, align 4, !tbaa !3, !noalias !15
  %15 = getelementptr inbounds nuw i8, ptr %4, i64 12
  %16 = load float, ptr %15, align 4, !tbaa !3, !noalias !15
  store float %10, ptr %0, align 4, !tbaa !3, !alias.scope !15
  %17 = getelementptr inbounds nuw i8, ptr %0, i64 4
  store float %12, ptr %17, align 4, !tbaa !3, !alias.scope !15
  %18 = getelementptr inbounds nuw i8, ptr %0, i64 8
  store float %14, ptr %18, align 4, !tbaa !3, !alias.scope !15
  %19 = getelementptr inbounds nuw i8, ptr %0, i64 12
  store float %16, ptr %19, align 4, !tbaa !3, !alias.scope !15
  call void @llvm.lifetime.end.p0(i64 16, ptr nonnull %4) #18, !noalias !15
  ret void
}